target datalayout = "e-m:e-p270:32:32-p271:32:32-p272:64:64-i64:64-i128:128-f80:128-n8:16:32:64-S128"
target triple = "x86_64-unknown-linux-gnu"

%struct.DOECap = type { ptr, i16, %struct.anon, %struct.anon.0, %struct.anon.1, ptr, ptr, i32, i32, i32, ptr, i16 }
%struct.anon = type { i8, i16 }
%struct.anon.0 = type { i8, i8, i8 }
%struct.anon.1 = type { i8, i8, i8, i8 }
%struct.DOEHeader = type { i16, i8, i8, i32 }

; Function Attrs: nounwind sspstrong uwtable
define dso_local i32 @pcie_doe_get_obj_len(ptr noundef %obj) #0 {
entry:
  %retval = alloca i32, align 4
  %obj.addr = alloca ptr, align 8
  %len = alloca i32, align 4
  store ptr %obj, ptr %obj.addr, align 8
  %0 = load ptr, ptr %obj.addr, align 8
  %tobool = icmp ne ptr %0, null
  br i1 %tobool, label %if.end, label %if.then

if.then:                                          ; preds = %entry
  store i32 0, ptr %retval, align 4
  br label %return

if.end:                                           ; preds = %entry
  %1 = load ptr, ptr %obj.addr, align 8
  %length = getelementptr inbounds %struct.DOEHeader, ptr %1, i32 0, i32 3
  %2 = load i32, ptr %length, align 1
  %and = and i32 %2, 262143
  store i32 %and, ptr %len, align 4
  %3 = load i32, ptr %len, align 4
  %tobool1 = icmp ne i32 %3, 0
  br i1 %tobool1, label %cond.true, label %cond.false

cond.true:                                        ; preds = %if.end
  %4 = load i32, ptr %len, align 4
  br label %cond.end

cond.false:                                       ; preds = %if.end
  br label %cond.end

cond.end:                                         ; preds = %cond.false, %cond.true
  %cond = phi i32 [ %4, %cond.true ], [ 262144, %cond.false ]
  store i32 %cond, ptr %retval, align 4
  br label %return

return:                                           ; preds = %cond.end, %if.then
  %5 = load i32, ptr %retval, align 4
  ret i32 %5
}

; Function Attrs: nounwind sspstrong uwtable
define dso_local void @pcie_doe_set_rsp(ptr noundef %doe_cap, ptr noundef %rsp) #0 {
entry:
  %doe_cap.addr = alloca ptr, align 8
  %rsp.addr = alloca ptr, align 8
  %len = alloca i32, align 4
  store ptr %doe_cap, ptr %doe_cap.addr, align 8
  store ptr %rsp, ptr %rsp.addr, align 8
  %0 = load ptr, ptr %rsp.addr, align 8
  %call = call i32 @pcie_doe_get_obj_len(ptr noundef %0)
  store i32 %call, ptr %len, align 4
  %1 = load ptr, ptr %doe_cap.addr, align 8
  %read_mbox = getelementptr inbounds %struct.DOECap, ptr %1, i32 0, i32 6
  %2 = load ptr, ptr %read_mbox, align 8
  %3 = load ptr, ptr %doe_cap.addr, align 8
  %read_mbox_len = getelementptr inbounds %struct.DOECap, ptr %3, i32 0, i32 8
  %4 = load i32, ptr %read_mbox_len, align 4
  %idx.ext = zext i32 %4 to i64
  %add.ptr = getelementptr i32, ptr %2, i64 %idx.ext
  %5 = load ptr, ptr %rsp.addr, align 8
  %6 = load i32, ptr %len, align 4
  %mul = mul i32 %6, 4
  %conv = zext i32 %mul to i64
  call void @llvm.memcpy.p0.p0.i64(ptr align 4 %add.ptr, ptr align 1 %5, i64 %conv, i1 false)
  %7 = load i32, ptr %len, align 4
  %8 = load ptr, ptr %doe_cap.addr, align 8
  %read_mbox_len1 = getelementptr inbounds %struct.DOECap, ptr %8, i32 0, i32 8
  %9 = load i32, ptr %read_mbox_len1, align 4
  %add = add i32 %9, %7
  store i32 %add, ptr %read_mbox_len1, align 4
  ret void
}