; Function Attrs: mustprogress nofree norecurse nosync nounwind sspstrong willreturn memory(readwrite, inaccessiblemem: none) uwtable
define dso_local void @pcie_doe_set_rsp(ptr noundef captures(none) %doe_cap, ptr noundef readonly %rsp) local_unnamed_addr #5 {
entry:
  %tobool.not.i = icmp eq ptr %rsp, null
  br i1 %tobool.not.i, label %pcie_doe_get_obj_len.exit, label %if.end.i

if.end.i:                                         ; preds = %entry
  %length.i = getelementptr inbounds nuw i8, ptr %rsp, i64 4
  %0 = load i32, ptr %length.i, align 1
  %and.i = and i32 %0, 262143
  %tobool1.not.i = icmp eq i32 %and.i, 0
  %cond.i = select i1 %tobool1.not.i, i32 262144, i32 %and.i
  br label %pcie_doe_get_obj_len.exit

pcie_doe_get_obj_len.exit:                        ; preds = %entry, %if.end.i
  %retval.0.i = phi i32 [ %cond.i, %if.end.i ], [ 0, %entry ]
  %read_mbox = getelementptr inbounds nuw i8, ptr %doe_cap, i64 32
  %1 = load ptr, ptr %read_mbox, align 8
  %read_mbox_len = getelementptr inbounds nuw i8, ptr %doe_cap, i64 44
  %2 = load i32, ptr %read_mbox_len, align 4
  %idx.ext = zext i32 %2 to i64
  %add.ptr = getelementptr i32, ptr %1, i64 %idx.ext
  %mul = shl nuw nsw i32 %retval.0.i, 2
  %conv = zext nneg i32 %mul to i64
  tail call void @llvm.memcpy.p0.p0.i64(ptr align 4 %add.ptr, ptr align 1 %rsp, i64 %conv, i1 false)
  %3 = load i32, ptr %read_mbox_len, align 4
  %add = add i32 %3, %retval.0.i
  store i32 %add, ptr %read_mbox_len, align 4
  ret void
}